# {{{ libFuzzer API

_ZN6fuzzer18MutationDispatcher9CrossOverEPKhmS2_mPhm
_ZN6fuzzer13BlockCoverage14AppendCoverageERKNSt7__cxx1112basic_stringIcSt11char_traitsIcESaIcEEE
_ZN6fuzzer13BlockCoverage14AppendCoverageERSi
_ZN6fuzzer13DataFlowTrace12ReadCoverageERKNSt7__cxx1112basic_stringIcSt11char_traitsIcESaIcEEE
_ZN6fuzzer13DataFlowTrace4InitERKNSt7__cxx1112basic_stringIcSt11char_traitsIcESaIcEEEPS6_RSt6vectorINS_9SizedFileESaISB_EERNS_6RandomE
_ZN6fuzzer15CollectDataFlowERKNSt7__cxx1112basic_stringIcSt11char_traitsIcESaIcEEES7_RKSt6vectorINS_9SizedFileESaIS9_EE
_ZNK6fuzzer13BlockCoverage15FunctionWeightsEm
__libfuzzer_is_present
LLVMFuzzerRunDriver
_ZN6fuzzer10RunOneTestEPNS_6FuzzerEPKcm
_ZN6fuzzer12FuzzerDriverEPiPPPcPFiPKhmE
_ZN6fuzzer14ParseSeedInutsB5cxx11EPKc
_ZN6fuzzer17AnalyzeDictionaryEPNS_6FuzzerERKSt6vectorIS2_IhSaIhEESaIS4_EERS6_
_ZN6fuzzer17CleanseCrashInputERKSt6vectorINSt7__cxx1112basic_stringIcSt11char_traitsIcESaIcEEESaIS6_EERKNS_14FuzzingOptionsE
_ZN6fuzzer17CloneArgsWithoutXERKSt6vectorINSt7__cxx1112basic_stringIcSt11char_traitsIcESaIcEEESaIS6_EEPKcSC_
_ZN6fuzzer18MinimizeCrashInputERKSt6vectorINSt7__cxx1112basic_stringIcSt11char_traitsIcESaIcEEESaIS6_EERKNS_14FuzzingOptionsE
_ZN6fuzzer30MinimizeCrashInputInternalStepEPNS_6FuzzerEPNS_11InputCorpusE
_ZN6fuzzer5MergeEPNS_6FuzzerERNS_14FuzzingOptionsERKSt6vectorINSt7__cxx1112basic_stringIcSt11char_traitsIcESaIcEEESaISA_EESE_PKc
_ZN6fuzzer17ExternalFunctionsC1Ev
_ZN6fuzzer17ExternalFunctionsC2Ev
_ZN6fuzzer16ExtraCountersEndEv
_ZN6fuzzer18ClearExtraCountersEv
_ZN6fuzzer18ExtraCountersBeginEv
_ZN6fuzzer12FuzzWithForkERNS_6RandomERKNS_14FuzzingOptionsERKSt6vectorINSt7__cxx1112basic_stringIcSt11char_traitsIcESaIcEEESaISB_EESF_i
_ZN6fuzzer12WorkerThreadEPNS_8JobQueueES1_
_ZN6fuzzer11CloseStdoutEv
_ZN6fuzzer11DirPlusFileERKNSt7__cxx1112basic_stringIcSt11char_traitsIcESaIcEEES7_
_ZN6fuzzer11WriteToFileEPKhmRKNSt7__cxx1112basic_stringIcSt11char_traitsIcESaIcEEE
_ZN6fuzzer11WriteToFileERKNSt7__cxx1112basic_stringIcSt11char_traitsIcESaIcEEES7_
_ZN6fuzzer11WriteToFileERKSt6vectorIhSaIhEERKNSt7__cxx1112basic_stringIcSt11char_traitsIcESaIcEEE
_ZN6fuzzer12AppendToFileEPKhmRKNSt7__cxx1112basic_stringIcSt11char_traitsIcESaIcEEE
_ZN6fuzzer12AppendToFileERKNSt7__cxx1112basic_stringIcSt11char_traitsIcESaIcEEES7_
_ZN6fuzzer12FileToStringERKNSt7__cxx1112basic_stringIcSt11char_traitsIcESaIcEEE
_ZN6fuzzer12FileToVectorERKNSt7__cxx1112basic_stringIcSt11char_traitsIcESaIcEEEmb
_ZN6fuzzer13CopyFileToErrERKNSt7__cxx1112basic_stringIcSt11char_traitsIcESaIcEEE
_ZN6fuzzer13GetOutputFileEv
_ZN6fuzzer13SetOutputFileEP8_IO_FILE
_ZN6fuzzer14MkDirRecursiveERKNSt7__cxx1112basic_stringIcSt11char_traitsIcESaIcEEE
_ZN6fuzzer14RmDirRecursiveERKNSt7__cxx1112basic_stringIcSt11char_traitsIcESaIcEEE
_ZN6fuzzer17DupAndCloseStderrEv
_ZN6fuzzer20GetSizedFilesFromDirERKNSt7__cxx1112basic_stringIcSt11char_traitsIcESaIcEEEPSt6vectorINS_9SizedFileESaIS9_EE
_ZN6fuzzer22ReadDirToVectorOfUnitsEPKcPSt6vectorIS2_IhSaIhEESaIS4_EEPlmbPS2_INSt7__cxx1112basic_stringIcSt11char_traitsIcESaIcEEESaISE_EE
_ZN6fuzzer4PutsEPKc
_ZN6fuzzer6PrintfEPKcz
_ZN6fuzzer7VPrintfEbPKcz
_ZN6fuzzer8GetEpochERKNSt7__cxx1112basic_stringIcSt11char_traitsIcESaIcEEE
_ZN6fuzzer8TempPathB5cxx11EPKcS1_
_ZN6fuzzer10getDevNullB5cxx11Ev
_ZN6fuzzer10RemoveFileERKNSt7__cxx1112basic_stringIcSt11char_traitsIcESaIcEEE
_ZN6fuzzer10RenameFileERKNSt7__cxx1112basic_stringIcSt11char_traitsIcESaIcEEES7_
_ZN6fuzzer11IsDirectoryERKNSt7__cxx1112basic_stringIcSt11char_traitsIcESaIcEEE
_ZN6fuzzer11IsSeparatorEc
_ZN6fuzzer12GetSeparatorEv
_ZN6fuzzer13DuplicateFileEi
_ZN6fuzzer15GetHandleFromFdEi
_ZN6fuzzer19IterateDirRecursiveERKNSt7__cxx1112basic_stringIcSt11char_traitsIcESaIcEEEPFvS7_ES9_S9_
_ZN6fuzzer23ListFilesInDirRecursiveERKNSt7__cxx1112basic_stringIcSt11char_traitsIcESaIcEEEPlPSt6vectorIS5_SaIS5_EEb
_ZN6fuzzer25IsInterestingCoverageFileERKNSt7__cxx1112basic_stringIcSt11char_traitsIcESaIcEEE
_ZN6fuzzer5MkDirERKNSt7__cxx1112basic_stringIcSt11char_traitsIcESaIcEEE
_ZN6fuzzer5RmDirERKNSt7__cxx1112basic_stringIcSt11char_traitsIcESaIcEEE
_ZN6fuzzer6IsFileERKNSt7__cxx1112basic_stringIcSt11char_traitsIcESaIcEEE
_ZN6fuzzer6TmpDirB5cxx11Ev
_ZN6fuzzer7DirNameERKNSt7__cxx1112basic_stringIcSt11char_traitsIcESaIcEEE
_ZN6fuzzer8BasenameERKNSt7__cxx1112basic_stringIcSt11char_traitsIcESaIcEEE
_ZN6fuzzer8FileSizeERKNSt7__cxx1112basic_stringIcSt11char_traitsIcESaIcEEE
_ZN6fuzzer8OpenFileEiPKc
_ZN6fuzzer8RawPrintEPKc
_ZN6fuzzer9CloseFileEi
LLVMFuzzerMutate
_ZN6fuzzer10MallocHookEPVKvm
_ZN6fuzzer6Fuzzer10PrintStatsEPKcS2_mm
_ZN6fuzzer6Fuzzer12ExitCallbackEv
_ZN6fuzzer6Fuzzer12HandleMallocEm
_ZN6fuzzer6Fuzzer13AlarmCallbackEv
_ZN6fuzzer6Fuzzer13CrashCallbackEv
_ZN6fuzzer6Fuzzer13DeathCallbackEv
_ZN6fuzzer6Fuzzer14PurgeAllocatorEv
_ZN6fuzzer6Fuzzer14SetMaxInputLenEm
_ZN6fuzzer6Fuzzer15DumpCurrentUnitEPKc
_ZN6fuzzer6Fuzzer15ExecuteCallbackEPKhm
_ZN6fuzzer6Fuzzer15PrintFinalStatsEv
_ZN6fuzzer6Fuzzer16MutateAndTestOneEv
_ZN6fuzzer6Fuzzer16RssLimitCallbackEv
_ZN6fuzzer6Fuzzer17InterruptCallbackEv
_ZN6fuzzer6Fuzzer17InterruptExitCodeEv
_ZN6fuzzer6Fuzzer17MinimizeCrashLoopERKSt6vectorIhSaIhEE
_ZN6fuzzer6Fuzzer17ReportNewCoverageEPNS_9InputInfoERKSt6vectorIhSaIhEE
_ZN6fuzzer6Fuzzer17SetMaxMutationLenEm
_ZN6fuzzer6Fuzzer18RereadOutputCorpusEm
_ZN6fuzzer6Fuzzer18StaticExitCallbackEv
_ZN6fuzzer6Fuzzer19MaybeExitGracefullyEv
_ZN6fuzzer6Fuzzer19StaticAlarmCallbackEv
_ZN6fuzzer6Fuzzer19StaticDeathCallbackEv
_ZN6fuzzer6Fuzzer19WriteToOutputCorpusB5cxx11ERKSt6vectorIhSaIhEE
_ZN6fuzzer6Fuzzer20TPCUpdateObservedPCsEv
_ZN6fuzzer6Fuzzer21PrintStatusForNewUnitERKSt6vectorIhSaIhEEPKc
_ZN6fuzzer6Fuzzer22CrashOnOverwrittenDataEv
_ZN6fuzzer6Fuzzer23AllocateCurrentUnitDataEv
_ZN6fuzzer6Fuzzer23CheckExitOnSrcPosOrItemEv
_ZN6fuzzer6Fuzzer23StaticInterruptCallbackEv
_ZN6fuzzer6Fuzzer23TryDetectingAMemoryLeakEPKhmb
_ZN6fuzzer6Fuzzer25ReadAndExecuteSeedCorporaERSt6vectorINS_9SizedFileESaIS2_EE
_ZN6fuzzer6Fuzzer25StaticCrashSignalCallbackEv
_ZN6fuzzer6Fuzzer25WriteUnitToFileWithPrefixERKSt6vectorIhSaIhEEPKc
_ZN6fuzzer6Fuzzer26StaticGracefulExitCallbackEv
_ZN6fuzzer6Fuzzer28PrintPulseAndReportSlowInputEPKhm
_ZN6fuzzer6Fuzzer28StaticFileSizeExceedCallbackEv
_ZN6fuzzer6Fuzzer4LoopERSt6vectorINS_9SizedFileESaIS2_EE
_ZN6fuzzer6Fuzzer6RunOneEPKhmbPNS_9InputInfoEbPb
_ZN6fuzzer6FuzzerC1EPFiPKhmERNS_11InputCorpusERNS_18MutationDispatcherERKNS_14FuzzingOptionsE
_ZN6fuzzer6FuzzerC2EPFiPKhmERNS_11InputCorpusERNS_18MutationDispatcherERKNS_14FuzzingOptionsE
_ZN6fuzzer8FreeHookEPVKv
_ZNK6fuzzer6Fuzzer28GetCurrentUnitInFuzzingTheadEPPKh
_ZN6fuzzer19CrashResistantMergeERKSt6vectorINSt7__cxx1112basic_stringIcSt11char_traitsIcESaIcEEESaIS6_EERKS0_INS_9SizedFileESaISB_EESF_PS8_RKSt3setIjSt4lessIjESaIjEEPSL_SN_SO_RKS6_bb
_ZN6fuzzer6Fuzzer31CrashResistantMergeInternalStepERKNSt7__cxx1112basic_stringIcSt11char_traitsIcESaIcEEEb
_ZN6fuzzer6Merger11ParseOrExitERSib
_ZN6fuzzer6Merger13SetCoverMergeERKSt3setIjSt4lessIjESaIjEEPS5_S7_S8_PSt6vectorINSt7__cxx1112basic_stringIcSt11char_traitsIcESaIcEEESaISF_EE
_ZN6fuzzer6Merger5MergeERKSt3setIjSt4lessIjESaIjEEPS5_S7_S8_PSt6vectorINSt7__cxx1112basic_stringIcSt11char_traitsIcESaIcEEESaISF_EE
_ZN6fuzzer6Merger5ParseERKNSt7__cxx1112basic_stringIcSt11char_traitsIcESaIcEEEb
_ZN6fuzzer6Merger5ParseERSib
_ZNK6fuzzer6Merger11AllFeaturesEv
_ZNK6fuzzer6Merger28ApproximateMemoryConsumptionEv
_ZN6fuzzer18MutationDispatcher10CopyPartOfEPKhmPhm
_ZN6fuzzer18MutationDispatcher10MutateImplEPhmmRSt6vectorINS0_7MutatorESaIS3_EE
_ZN6fuzzer18MutationDispatcher12InsertPartOfEPKhmPhmm
_ZN6fuzzer18MutationDispatcher13DefaultMutateEPhmm
_ZN6fuzzer18MutationDispatcher13Mutate_CustomEPhmm
_ZN6fuzzer18MutationDispatcher14MutateWithMaskEPhmmRKSt6vectorIhSaIhEE
_ZN6fuzzer18MutationDispatcher15Mutate_CopyPartEPhmm
_ZN6fuzzer18MutationDispatcher16Mutate_ChangeBitEPhmm
_ZN6fuzzer18MutationDispatcher16Mutate_CrossOverEPhmm
_ZN6fuzzer18MutationDispatcher16MutationSequenceB5cxx11Ev
_ZN6fuzzer18MutationDispatcher17Mutate_ChangeByteEPhmm
_ZN6fuzzer18MutationDispatcher17Mutate_EraseBytesEPhmm
_ZN6fuzzer18MutationDispatcher17Mutate_InsertByteEPhmm
_ZN6fuzzer18MutationDispatcher19Mutate_ShuffleBytesEPhmm
_ZN6fuzzer18MutationDispatcher20ApplyDictionaryEntryEPhmmRNS_15DictionaryEntryE
_ZN6fuzzer18MutationDispatcher21AddWordFromDictionaryERNS_10DictionaryEPhmm
_ZN6fuzzer18MutationDispatcher21PrintMutationSequenceEb
_ZN6fuzzer18MutationDispatcher21StartMutationSequenceEv
_ZN6fuzzer18MutationDispatcher22Mutate_AddWordFromTORCEPhmm
_ZN6fuzzer18MutationDispatcher22Mutate_CustomCrossOverEPhmm
_ZN6fuzzer18MutationDispatcher25AddWordToManualDictionaryERKNS_9FixedWordILm64EEE
_ZN6fuzzer18MutationDispatcher25Mutate_ChangeASCIIIntegerEPhmm
_ZN6fuzzer18MutationDispatcher26MakeDictionaryEntryFromCMPEPKvS2_S2_S2_mPKhm
_ZN6fuzzer18MutationDispatcher26MakeDictionaryEntryFromCMPERKNS_9FixedWordILm64EEES4_PKhm
_ZN6fuzzer18MutationDispatcher26Mutate_ChangeBinaryIntegerEPhmm
_ZN6fuzzer18MutationDispatcher26Mutate_InsertRepeatedBytesEPhmm
_ZN6fuzzer18MutationDispatcher26PrintRecommendedDictionaryEv
_ZN6fuzzer18MutationDispatcher32RecordSuccessfulMutationSequenceEv
_ZN6fuzzer18MutationDispatcher34Mutate_AddWordFromManualDictionaryEPhmm
_ZN6fuzzer18MutationDispatcher42Mutate_AddWordFromPersistentAutoDictionaryEPhmm
_ZN6fuzzer18MutationDispatcher6MutateEPhmm
_ZN6fuzzer18MutationDispatcherC1ERNS_6RandomERKNS_14FuzzingOptionsE
_ZN6fuzzer18MutationDispatcherC2ERNS_6RandomERKNS_14FuzzingOptionsE
_ZN6fuzzer11ComputeSHA1EPKhmPh
_ZN6fuzzer12Sha1ToStringB5cxx11EPKh
_ZN6fuzzer4HashB5cxx11ERKSt6vectorIhSaIhEE
__sanitizer_cov_8bit_counters_init
__sanitizer_cov_pcs_init
__sanitizer_cov_trace_cmp1
__sanitizer_cov_trace_cmp2
__sanitizer_cov_trace_cmp4
__sanitizer_cov_trace_cmp8
__sanitizer_cov_trace_const_cmp1
__sanitizer_cov_trace_const_cmp2
__sanitizer_cov_trace_const_cmp4
__sanitizer_cov_trace_const_cmp8
__sanitizer_cov_trace_div4
__sanitizer_cov_trace_div8
__sanitizer_cov_trace_gep
__sanitizer_cov_trace_pc
__sanitizer_cov_trace_pc_guard
__sanitizer_cov_trace_pc_guard_init
__sanitizer_cov_trace_pc_indir
__sanitizer_cov_trace_switch
__sanitizer_weak_hook_memcmp
__sanitizer_weak_hook_memmem
__sanitizer_weak_hook_strcasecmp
__sanitizer_weak_hook_strcasestr
__sanitizer_weak_hook_strcmp
__sanitizer_weak_hook_strncasecmp
__sanitizer_weak_hook_strncmp
__sanitizer_weak_hook_strstr
_ZN6fuzzer34WarnAboutDeprecatedInstrumentationEPKc
_ZN6fuzzer7TracePC13HandlePCsInitEPKmS2_
_ZN6fuzzer7TracePC13PrintCoverageEb
_ZN6fuzzer7TracePC15PCTableEntryIdxEPKNS0_12PCTableEntryE
_ZN6fuzzer7TracePC15PrintModuleInfoEv
_ZN6fuzzer7TracePC16SetFocusFunctionERKNSt7__cxx1112basic_stringIcSt11char_traitsIcESaIcEEE
_ZN6fuzzer7TracePC17AddValueForMemcmpEPvPKvS3_mb
_ZN6fuzzer7TracePC17PCTableEntryByIdxEm
_ZN6fuzzer7TracePC17UpdateObservedPCsEv
_ZN6fuzzer7TracePC18GetTotalPCCoverageEv
_ZN6fuzzer7TracePC18HandleCallerCalleeEmm
_ZN6fuzzer7TracePC18RecordInitialStackEv
_ZN6fuzzer7TracePC19ClearInlineCountersEv
_ZN6fuzzer7TracePC20GetNextInstructionPcEm
_ZN6fuzzer7TracePC21ObservedFocusFunctionEv
_ZN6fuzzer7TracePC28HandleInline8bitCountersInitEPhS1_
_ZNK6fuzzer7TracePC17GetMaxStackOffsetEv
_ZN6fuzzer10DescribePCB5cxx11EPKcm
_ZN6fuzzer10PrintASCIIEPKhmPKc
_ZN6fuzzer10PrintASCIIERKSt6vectorIhSaIhEEPKc
_ZN6fuzzer13PrintHexArrayEPKhmPKc
_ZN6fuzzer14PrintASCIIByteEh
_ZN6fuzzer14SimpleFastHashEPKvmm
_ZN6fuzzer15PrintStackTraceEv
_ZN6fuzzer16NumberOfCpuCoresEv
_ZN6fuzzer18PrintMemoryProfileEv
_ZN6fuzzer19ParseDictionaryFileERKNSt7__cxx1112basic_stringIcSt11char_traitsIcESaIcEEEPSt6vectorIS8_IhSaIhEESaISA_EE
_ZN6fuzzer23ParseOneDictionaryEntryERKNSt7__cxx1112basic_stringIcSt11char_traitsIcESaIcEEEPSt6vectorIhSaIhEE
_ZN6fuzzer5PrintERKSt6vectorIhSaIhEEPKc
_ZN6fuzzer6Base64B5cxx11ERKSt6vectorIhSaIhEE
_ZN6fuzzer7IsASCIIEPKhm
_ZN6fuzzer7IsASCIIERKSt6vectorIhSaIhEE
_ZN6fuzzer7PrintPCEPKcS1_m
_ZN6fuzzer7ToASCIIEPhm
_ZN6fuzzer13DiscardOutputEi
_ZN6fuzzer13SetThreadNameERSt6threadRKNSt7__cxx1112basic_stringIcSt11char_traitsIcESaIcEEE
_ZN6fuzzer14ExecuteCommandERKNS_7CommandE
_ZN6fuzzer12GetPeakRSSMbEv
_ZN6fuzzer12SearchMemoryEPKvmS1_m
_ZN6fuzzer12SleepSecondsEi
_ZN6fuzzer14DisassembleCmdERKNSt7__cxx1112basic_stringIcSt11char_traitsIcESaIcEEE
_ZN6fuzzer14ExecuteCommandERKNS_7CommandEPNSt7__cxx1112basic_stringIcSt11char_traitsIcESaIcEEE
_ZN6fuzzer14SearchRegexCmdERKNSt7__cxx1112basic_stringIcSt11char_traitsIcESaIcEEE
_ZN6fuzzer15OpenProcessPipeEPKcS1_
_ZN6fuzzer16CloseProcessPipeEP8_IO_FILE
_ZN6fuzzer16SetSignalHandlerERKNS_14FuzzingOptionsE
_ZN6fuzzer6GetPidEv
_ZN6fuzzer8PageSizeEv
_ZN6fuzzer8SetTimerEi

# }}} libFuzzer API
